; Function Attrs: mustprogress nofree norecurse nosync nounwind willreturn memory(argmem: read) uwtable
define internal zeroext range(i8 0, 5) i8 @lv_text_utf8_size(ptr nocapture noundef readonly %0) #0 {
  %2 = load i8, ptr %0, align 1, !tbaa !3
  %3 = zext i8 %2 to i32
  %4 = icmp sgt i8 %2, -1
  br i1 %4, label %14, label %5

5:                                                ; preds = %1
  %6 = and i32 %3, 224
  %7 = icmp eq i32 %6, 192
  br i1 %7, label %14, label %8

8:                                                ; preds = %5
  %9 = and i32 %3, 240
  %10 = icmp eq i32 %9, 224
  br i1 %10, label %14, label %11

11:                                               ; preds = %8
  %12 = and i32 %3, 248
  %13 = icmp eq i32 %12, 240
  %. = select i1 %13, i8 4, i8 0
  br label %14

14:                                               ; preds = %11, %8, %5, %1
  %.0 = phi i8 [ 1, %1 ], [ 2, %5 ], [ 3, %8 ], [ %., %11 ]
  ret i8 %.0
}